; Function Attrs: mustprogress nounwind uwtable
define dso_local void @_ZN3net15QuicCryptoProofC2Ev(ptr noundef nonnull align 8 dereferenceable(112) %this) unnamed_addr #4 align 2 personality ptr @__gxx_personality_v0 {
entry:
  tail call void @_ZNSt7__cxx1112basic_stringIcSt11char_traitsIcESaIcEEC1Ev(ptr noundef nonnull align 8 dereferenceable(32) %this) #20
  %chain = getelementptr inbounds i8, ptr %this, i64 32
  store ptr null, ptr %chain, align 8
  %cert_sct = getelementptr inbounds i8, ptr %this, i64 40
  tail call void @_ZNSt7__cxx1112basic_stringIcSt11char_traitsIcESaIcEEC1Ev(ptr noundef nonnull align 8 dereferenceable(32) %cert_sct) #20
  %config = getelementptr inbounds i8, ptr %this, i64 72
  store ptr null, ptr %config, align 8
  %primary_scid = getelementptr inbounds i8, ptr %this, i64 80
  tail call void @_ZNSt7__cxx1112basic_stringIcSt11char_traitsIcESaIcEEC1Ev(ptr noundef nonnull align 8 dereferenceable(32) %primary_scid) #20
  ret void
}